target datalayout = "e-m:e-p270:32:32-p271:32:32-p272:64:64-i64:64-i128:128-f80:128-n8:16:32:64-S128"
target triple = "x86_64-pc-linux-gnu"

%struct.SlabContext = type { %struct.MemoryContextData, i32, i32, i32, i32, i32, i32, %struct.dclist_head, [3 x %struct.dlist_head] }
%struct.MemoryContextData = type { i32, i8, i8, i64, ptr, ptr, ptr, ptr, ptr, ptr, ptr, ptr }
%struct.dclist_head = type { %struct.dlist_head, i32 }
%struct.dlist_head = type { %struct.dlist_node }
%struct.dlist_node = type { ptr, ptr }
%struct.SlabBlock = type { ptr, i32, i32, ptr, ptr, %struct.dlist_node }
%struct.MemoryChunk = type { i64 }

; Function Attrs: inlinehint nounwind uwtable
define internal void @MemoryChunkSetHdrMask(ptr noundef %0, ptr noundef %1, i64 noundef %2, i32 noundef %3) #5 {
  %5 = alloca ptr, align 8
  %6 = alloca ptr, align 8
  %7 = alloca i64, align 8
  %8 = alloca i32, align 4
  %9 = alloca i64, align 8
  store ptr %0, ptr %5, align 8
  store ptr %1, ptr %6, align 8
  store i64 %2, ptr %7, align 8
  store i32 %3, ptr %8, align 4
  call void @llvm.lifetime.start.p0(i64 8, ptr %9) #10
  %10 = load ptr, ptr %5, align 8
  %11 = load ptr, ptr %6, align 8
  %12 = ptrtoint ptr %10 to i64
  %13 = ptrtoint ptr %11 to i64
  %14 = sub i64 %12, %13
  store i64 %14, ptr %9, align 8
  %15 = load i64, ptr %9, align 8
  %16 = shl i64 %15, 34
  %17 = load i64, ptr %7, align 8
  %18 = shl i64 %17, 5
  %19 = or i64 %16, %18
  %20 = load i32, ptr %8, align 4
  %21 = zext i32 %20 to i64
  %22 = or i64 %19, %21
  %23 = load ptr, ptr %5, align 8
  %24 = getelementptr inbounds nuw %struct.MemoryChunk, ptr %23, i32 0, i32 0
  store i64 %22, ptr %24, align 8
  call void @llvm.lifetime.end.p0(i64 8, ptr %9) #10
  ret void
}

; Function Attrs: inlinehint nounwind uwtable
define internal void @dlist_init(ptr noundef %0) #5 {
  %2 = alloca ptr, align 8
  store ptr %0, ptr %2, align 8
  %3 = load ptr, ptr %2, align 8
  %4 = getelementptr inbounds nuw %struct.dlist_head, ptr %3, i32 0, i32 0
  %5 = load ptr, ptr %2, align 8
  %6 = getelementptr inbounds nuw %struct.dlist_head, ptr %5, i32 0, i32 0
  %7 = getelementptr inbounds nuw %struct.dlist_node, ptr %6, i32 0, i32 0
  store ptr %4, ptr %7, align 8
  %8 = load ptr, ptr %2, align 8
  %9 = getelementptr inbounds nuw %struct.dlist_head, ptr %8, i32 0, i32 0
  %10 = getelementptr inbounds nuw %struct.dlist_node, ptr %9, i32 0, i32 1
  store ptr %4, ptr %10, align 8
  ret void
}

; Function Attrs: inlinehint nounwind uwtable
define internal void @dlist_delete(ptr noundef %0) #5 {
  %2 = alloca ptr, align 8
  store ptr %0, ptr %2, align 8
  %3 = load ptr, ptr %2, align 8
  %4 = getelementptr inbounds nuw %struct.dlist_node, ptr %3, i32 0, i32 1
  %5 = load ptr, ptr %4, align 8
  %6 = load ptr, ptr %2, align 8
  %7 = getelementptr inbounds nuw %struct.dlist_node, ptr %6, i32 0, i32 0
  %8 = load ptr, ptr %7, align 8
  %9 = getelementptr inbounds nuw %struct.dlist_node, ptr %8, i32 0, i32 1
  store ptr %5, ptr %9, align 8
  %10 = load ptr, ptr %2, align 8
  %11 = getelementptr inbounds nuw %struct.dlist_node, ptr %10, i32 0, i32 0
  %12 = load ptr, ptr %11, align 8
  %13 = load ptr, ptr %2, align 8
  %14 = getelementptr inbounds nuw %struct.dlist_node, ptr %13, i32 0, i32 1
  %15 = load ptr, ptr %14, align 8
  %16 = getelementptr inbounds nuw %struct.dlist_node, ptr %15, i32 0, i32 0
  store ptr %12, ptr %16, align 8
  ret void
}

; Function Attrs: inlinehint nounwind uwtable
define internal ptr @SlabAllocSetupNewChunk(ptr noundef %0, ptr noundef %1, ptr noundef %2, i64 noundef %3) #5 {
  %5 = alloca ptr, align 8
  %6 = alloca ptr, align 8
  %7 = alloca ptr, align 8
  %8 = alloca i64, align 8
  %9 = alloca ptr, align 8
  store ptr %0, ptr %5, align 8
  store ptr %1, ptr %6, align 8
  store ptr %2, ptr %7, align 8
  store i64 %3, ptr %8, align 8
  call void @llvm.lifetime.start.p0(i64 8, ptr %9) #10
  %10 = load ptr, ptr %5, align 8
  store ptr %10, ptr %9, align 8
  br label %11

11:                                               ; preds = %4
  br label %12

12:                                               ; preds = %11
  br label %13

13:                                               ; preds = %12
  %14 = load ptr, ptr %7, align 8
  %15 = load ptr, ptr %6, align 8
  %16 = load ptr, ptr %9, align 8
  %17 = getelementptr inbounds nuw %struct.SlabContext, ptr %16, i32 0, i32 1
  %18 = load i32, ptr %17, align 8
  %19 = zext i32 %18 to i64
  %20 = add i64 %19, 7
  %21 = and i64 %20, -8
  call void @MemoryChunkSetHdrMask(ptr noundef %14, ptr noundef %15, i64 noundef %21, i32 noundef 5)
  br label %22

22:                                               ; preds = %13
  br label %23

23:                                               ; preds = %22
  br label %24

24:                                               ; preds = %23
  %25 = load ptr, ptr %7, align 8
  %26 = getelementptr inbounds nuw i8, ptr %25, i64 8
  call void @llvm.lifetime.end.p0(i64 8, ptr %9) #10
  ret ptr %26
}

; Function Attrs: nounwind uwtable
define internal i32 @SlabFindNextBlockListIndex(ptr noundef %0) #0 {
  %2 = alloca i32, align 4
  %3 = alloca ptr, align 8
  %4 = alloca i32, align 4
  %5 = alloca i32, align 4
  store ptr %0, ptr %3, align 8
  call void @llvm.lifetime.start.p0(i64 4, ptr %4) #10
  store i32 1, ptr %4, align 4
  br label %6

6:                                                ; preds = %20, %1
  %7 = load i32, ptr %4, align 4
  %8 = icmp slt i32 %7, 3
  br i1 %8, label %10, label %9

9:                                                ; preds = %6
  store i32 2, ptr %5, align 4
  br label %23

10:                                               ; preds = %6
  %11 = load ptr, ptr %3, align 8
  %12 = getelementptr inbounds nuw %struct.SlabContext, ptr %11, i32 0, i32 8
  %13 = load i32, ptr %4, align 4
  %14 = sext i32 %13 to i64
  %15 = getelementptr inbounds [3 x %struct.dlist_head], ptr %12, i64 0, i64 %14
  %16 = call zeroext i1 @dlist_is_empty(ptr noundef %15)
  br i1 %16, label %19, label %17

17:                                               ; preds = %10
  %18 = load i32, ptr %4, align 4
  store i32 %18, ptr %2, align 4
  store i32 1, ptr %5, align 4
  br label %23

19:                                               ; preds = %10
  br label %20

20:                                               ; preds = %19
  %21 = load i32, ptr %4, align 4
  %22 = add i32 %21, 1
  store i32 %22, ptr %4, align 4
  br label %6, !llvm.loop !10

23:                                               ; preds = %17, %9
  call void @llvm.lifetime.end.p0(i64 4, ptr %4) #10
  %24 = load i32, ptr %5, align 4
  switch i32 %24, label %28 [
    i32 2, label %25
    i32 1, label %26
  ]

25:                                               ; preds = %23
  store i32 0, ptr %2, align 4
  br label %26

26:                                               ; preds = %25, %23
  %27 = load i32, ptr %2, align 4
  ret i32 %27

28:                                               ; preds = %23
  unreachable
}

; Function Attrs: inlinehint nounwind uwtable
define internal zeroext i1 @dlist_is_empty(ptr noundef %0) #5 {
  %2 = alloca ptr, align 8
  store ptr %0, ptr %2, align 8
  %3 = load ptr, ptr %2, align 8
  %4 = getelementptr inbounds nuw %struct.dlist_head, ptr %3, i32 0, i32 0
  %5 = getelementptr inbounds nuw %struct.dlist_node, ptr %4, i32 0, i32 1
  %6 = load ptr, ptr %5, align 8
  %7 = icmp eq ptr %6, null
  br i1 %7, label %16, label %8

8:                                                ; preds = %1
  %9 = load ptr, ptr %2, align 8
  %10 = getelementptr inbounds nuw %struct.dlist_head, ptr %9, i32 0, i32 0
  %11 = getelementptr inbounds nuw %struct.dlist_node, ptr %10, i32 0, i32 1
  %12 = load ptr, ptr %11, align 8
  %13 = load ptr, ptr %2, align 8
  %14 = getelementptr inbounds nuw %struct.dlist_head, ptr %13, i32 0, i32 0
  %15 = icmp eq ptr %12, %14
  br label %16

16:                                               ; preds = %8, %1
  %17 = phi i1 [ true, %1 ], [ %15, %8 ]
  ret i1 %17
}

; Function Attrs: inlinehint nounwind uwtable
define internal void @dlist_push_head(ptr noundef %0, ptr noundef %1) #5 {
  %3 = alloca ptr, align 8
  %4 = alloca ptr, align 8
  store ptr %0, ptr %3, align 8
  store ptr %1, ptr %4, align 8
  %5 = load ptr, ptr %3, align 8
  %6 = getelementptr inbounds nuw %struct.dlist_head, ptr %5, i32 0, i32 0
  %7 = getelementptr inbounds nuw %struct.dlist_node, ptr %6, i32 0, i32 1
  %8 = load ptr, ptr %7, align 8
  %9 = icmp eq ptr %8, null
  br i1 %9, label %10, label %12

10:                                               ; preds = %2
  %11 = load ptr, ptr %3, align 8
  call void @dlist_init(ptr noundef %11)
  br label %12

12:                                               ; preds = %10, %2
  %13 = load ptr, ptr %3, align 8
  %14 = getelementptr inbounds nuw %struct.dlist_head, ptr %13, i32 0, i32 0
  %15 = getelementptr inbounds nuw %struct.dlist_node, ptr %14, i32 0, i32 1
  %16 = load ptr, ptr %15, align 8
  %17 = load ptr, ptr %4, align 8
  %18 = getelementptr inbounds nuw %struct.dlist_node, ptr %17, i32 0, i32 1
  store ptr %16, ptr %18, align 8
  %19 = load ptr, ptr %3, align 8
  %20 = getelementptr inbounds nuw %struct.dlist_head, ptr %19, i32 0, i32 0
  %21 = load ptr, ptr %4, align 8
  %22 = getelementptr inbounds nuw %struct.dlist_node, ptr %21, i32 0, i32 0
  store ptr %20, ptr %22, align 8
  %23 = load ptr, ptr %4, align 8
  %24 = load ptr, ptr %4, align 8
  %25 = getelementptr inbounds nuw %struct.dlist_node, ptr %24, i32 0, i32 1
  %26 = load ptr, ptr %25, align 8
  %27 = getelementptr inbounds nuw %struct.dlist_node, ptr %26, i32 0, i32 0
  store ptr %23, ptr %27, align 8
  %28 = load ptr, ptr %4, align 8
  %29 = load ptr, ptr %3, align 8
  %30 = getelementptr inbounds nuw %struct.dlist_head, ptr %29, i32 0, i32 0
  %31 = getelementptr inbounds nuw %struct.dlist_node, ptr %30, i32 0, i32 1
  store ptr %28, ptr %31, align 8
  ret void
}

; Function Attrs: inlinehint nounwind uwtable
define internal void @dlist_delete_from(ptr noundef %0, ptr noundef %1) #5 {
  %3 = alloca ptr, align 8
  %4 = alloca ptr, align 8
  store ptr %0, ptr %3, align 8
  store ptr %1, ptr %4, align 8
  %5 = load ptr, ptr %4, align 8
  call void @dlist_delete(ptr noundef %5)
  ret void
}

; Function Attrs: inlinehint nounwind uwtable
define internal i32 @SlabBlocklistIndex(ptr noundef %0, i32 noundef %1) #5 {
  %3 = alloca ptr, align 8
  %4 = alloca i32, align 4
  %5 = alloca i32, align 4
  %6 = alloca i32, align 4
  store ptr %0, ptr %3, align 8
  store i32 %1, ptr %4, align 4
  call void @llvm.lifetime.start.p0(i64 4, ptr %5) #10
  call void @llvm.lifetime.start.p0(i64 4, ptr %6) #10
  %7 = load ptr, ptr %3, align 8
  %8 = getelementptr inbounds nuw %struct.SlabContext, ptr %7, i32 0, i32 6
  %9 = load i32, ptr %8, align 4
  store i32 %9, ptr %6, align 4
  %10 = load i32, ptr %4, align 4
  %11 = sub i32 0, %10
  %12 = load i32, ptr %6, align 4
  %13 = ashr i32 %11, %12
  %14 = sub i32 0, %13
  store i32 %14, ptr %5, align 4
  %15 = load i32, ptr %4, align 4
  %16 = icmp eq i32 %15, 0
  br i1 %16, label %17, label %18

17:                                               ; preds = %2
  br label %19

18:                                               ; preds = %2
  br label %19

19:                                               ; preds = %18, %17
  %20 = load i32, ptr %5, align 4
  call void @llvm.lifetime.end.p0(i64 4, ptr %6) #10
  call void @llvm.lifetime.end.p0(i64 4, ptr %5) #10
  ret i32 %20
}

; Function Attrs: inlinehint nounwind uwtable
define internal ptr @SlabGetNextFreeChunk(ptr noundef %0, ptr noundef %1) #5 {
  %3 = alloca ptr, align 8
  %4 = alloca ptr, align 8
  %5 = alloca ptr, align 8
  store ptr %0, ptr %3, align 8
  store ptr %1, ptr %4, align 8
  call void @llvm.lifetime.start.p0(i64 8, ptr %5) #10
  %6 = load ptr, ptr %4, align 8
  %7 = getelementptr inbounds nuw %struct.SlabBlock, ptr %6, i32 0, i32 3
  %8 = load ptr, ptr %7, align 8
  %9 = icmp ne ptr %8, null
  br i1 %9, label %10, label %22

10:                                               ; preds = %2
  %11 = load ptr, ptr %4, align 8
  %12 = getelementptr inbounds nuw %struct.SlabBlock, ptr %11, i32 0, i32 3
  %13 = load ptr, ptr %12, align 8
  store ptr %13, ptr %5, align 8
  br label %14

14:                                               ; preds = %10
  br label %15

15:                                               ; preds = %14
  br label %16

16:                                               ; preds = %15
  %17 = load ptr, ptr %5, align 8
  %18 = getelementptr inbounds nuw i8, ptr %17, i64 8
  %19 = load ptr, ptr %18, align 8
  %20 = load ptr, ptr %4, align 8
  %21 = getelementptr inbounds nuw %struct.SlabBlock, ptr %20, i32 0, i32 3
  store ptr %19, ptr %21, align 8
  br label %40

22:                                               ; preds = %2
  %23 = load ptr, ptr %4, align 8
  %24 = getelementptr inbounds nuw %struct.SlabBlock, ptr %23, i32 0, i32 4
  %25 = load ptr, ptr %24, align 8
  store ptr %25, ptr %5, align 8
  %26 = load ptr, ptr %4, align 8
  %27 = getelementptr inbounds nuw %struct.SlabBlock, ptr %26, i32 0, i32 4
  %28 = load ptr, ptr %27, align 8
  %29 = load ptr, ptr %3, align 8
  %30 = getelementptr inbounds nuw %struct.SlabContext, ptr %29, i32 0, i32 2
  %31 = load i32, ptr %30, align 4
  %32 = zext i32 %31 to i64
  %33 = getelementptr inbounds nuw i8, ptr %28, i64 %32
  %34 = load ptr, ptr %4, align 8
  %35 = getelementptr inbounds nuw %struct.SlabBlock, ptr %34, i32 0, i32 4
  store ptr %33, ptr %35, align 8
  %36 = load ptr, ptr %4, align 8
  %37 = getelementptr inbounds nuw %struct.SlabBlock, ptr %36, i32 0, i32 2
  %38 = load i32, ptr %37, align 4
  %39 = add i32 %38, -1
  store i32 %39, ptr %37, align 4
  br label %40

40:                                               ; preds = %22, %16
  %41 = load ptr, ptr %4, align 8
  %42 = getelementptr inbounds nuw %struct.SlabBlock, ptr %41, i32 0, i32 1
  %43 = load i32, ptr %42, align 8
  %44 = add i32 %43, -1
  store i32 %44, ptr %42, align 8
  %45 = load ptr, ptr %5, align 8
  call void @llvm.lifetime.end.p0(i64 8, ptr %5) #10
  ret ptr %45
}

; Function Attrs: inlinehint nounwind uwtable
define internal ptr @dlist_head_element_off(ptr noundef %0, i64 noundef %1) #5 {
  %3 = alloca ptr, align 8
  %4 = alloca i64, align 8
  store ptr %0, ptr %3, align 8
  store i64 %1, ptr %4, align 8
  %5 = load ptr, ptr %3, align 8
  %6 = getelementptr inbounds nuw %struct.dlist_head, ptr %5, i32 0, i32 0
  %7 = getelementptr inbounds nuw %struct.dlist_node, ptr %6, i32 0, i32 1
  %8 = load ptr, ptr %7, align 8
  %9 = load i64, ptr %4, align 8
  %10 = sub i64 0, %9
  %11 = getelementptr inbounds i8, ptr %8, i64 %10
  ret ptr %11
}

; Function Attrs: nounwind uwtable
define dso_local ptr @SlabAlloc(ptr noundef %0, i64 noundef %1, i32 noundef %2) #0 {
  %4 = alloca ptr, align 8
  %5 = alloca ptr, align 8
  %6 = alloca i64, align 8
  %7 = alloca i32, align 4
  %8 = alloca ptr, align 8
  %9 = alloca ptr, align 8
  %10 = alloca ptr, align 8
  %11 = alloca i32, align 4
  %12 = alloca ptr, align 8
  %13 = alloca i32, align 4
  %14 = alloca i32, align 4
  store ptr %0, ptr %5, align 8
  store i64 %1, ptr %6, align 8
  store i32 %2, ptr %7, align 4
  call void @llvm.lifetime.start.p0(i64 8, ptr %8) #10
  %15 = load ptr, ptr %5, align 8
  store ptr %15, ptr %8, align 8
  call void @llvm.lifetime.start.p0(i64 8, ptr %9) #10
  call void @llvm.lifetime.start.p0(i64 8, ptr %10) #10
  %16 = load i64, ptr %6, align 8
  %17 = load ptr, ptr %8, align 8
  %18 = getelementptr inbounds nuw %struct.SlabContext, ptr %17, i32 0, i32 1
  %19 = load i32, ptr %18, align 8
  %20 = zext i32 %19 to i64
  %21 = icmp ne i64 %16, %20
  %22 = zext i1 %21 to i32
  %23 = icmp ne i32 %22, 0
  %24 = zext i1 %23 to i32
  %25 = sext i32 %24 to i64
  %26 = call i64 @llvm.expect.i64(i64 %25, i64 0)
  %27 = icmp ne i64 %26, 0
  br i1 %27, label %28, label %31

28:                                               ; preds = %3
  %29 = load ptr, ptr %5, align 8
  %30 = load i64, ptr %6, align 8
  call void @SlabAllocInvalidSize(ptr noundef %29, i64 noundef %30) #13
  unreachable

31:                                               ; preds = %3
  %32 = load ptr, ptr %8, align 8
  %33 = getelementptr inbounds nuw %struct.SlabContext, ptr %32, i32 0, i32 5
  %34 = load i32, ptr %33, align 8
  %35 = icmp eq i32 %34, 0
  %36 = zext i1 %35 to i32
  %37 = icmp ne i32 %36, 0
  %38 = zext i1 %37 to i32
  %39 = sext i32 %38 to i64
  %40 = call i64 @llvm.expect.i64(i64 %39, i64 0)
  %41 = icmp ne i64 %40, 0
  br i1 %41, label %42, label %47

42:                                               ; preds = %31
  %43 = load ptr, ptr %5, align 8
  %44 = load i64, ptr %6, align 8
  %45 = load i32, ptr %7, align 4
  %46 = call ptr @SlabAllocFromNewBlock(ptr noundef %43, i64 noundef %44, i32 noundef %45)
  store ptr %46, ptr %4, align 8
  store i32 1, ptr %11, align 4
  br label %105

47:                                               ; preds = %31
  call void @llvm.lifetime.start.p0(i64 8, ptr %12) #10
  %48 = load ptr, ptr %8, align 8
  %49 = getelementptr inbounds nuw %struct.SlabContext, ptr %48, i32 0, i32 8
  %50 = load ptr, ptr %8, align 8
  %51 = getelementptr inbounds nuw %struct.SlabContext, ptr %50, i32 0, i32 5
  %52 = load i32, ptr %51, align 8
  %53 = sext i32 %52 to i64
  %54 = getelementptr inbounds [3 x %struct.dlist_head], ptr %49, i64 0, i64 %53
  store ptr %54, ptr %12, align 8
  call void @llvm.lifetime.start.p0(i64 4, ptr %13) #10
  br label %55

55:                                               ; preds = %47
  br label %56

56:                                               ; preds = %55
  br label %57

57:                                               ; preds = %56
  store i32 1, ptr %14, align 4
  %58 = load ptr, ptr %12, align 8
  %59 = call ptr @dlist_head_element_off(ptr noundef %58, i64 noundef 32)
  store ptr %59, ptr %9, align 8
  %60 = load ptr, ptr %8, align 8
  %61 = load ptr, ptr %9, align 8
  %62 = call ptr @SlabGetNextFreeChunk(ptr noundef %60, ptr noundef %61)
  store ptr %62, ptr %10, align 8
  %63 = load ptr, ptr %8, align 8
  %64 = load ptr, ptr %9, align 8
  %65 = getelementptr inbounds nuw %struct.SlabBlock, ptr %64, i32 0, i32 1
  %66 = load i32, ptr %65, align 8
  %67 = call i32 @SlabBlocklistIndex(ptr noundef %63, i32 noundef %66)
  store i32 %67, ptr %13, align 4
  %68 = load ptr, ptr %8, align 8
  %69 = getelementptr inbounds nuw %struct.SlabContext, ptr %68, i32 0, i32 5
  %70 = load i32, ptr %69, align 8
  %71 = load i32, ptr %13, align 4
  %72 = icmp ne i32 %70, %71
  %73 = zext i1 %72 to i32
  %74 = icmp ne i32 %73, 0
  %75 = zext i1 %74 to i32
  %76 = sext i32 %75 to i64
  %77 = call i64 @llvm.expect.i64(i64 %76, i64 0)
  %78 = icmp ne i64 %77, 0
  br i1 %78, label %79, label %98

79:                                               ; preds = %57
  %80 = load ptr, ptr %12, align 8
  %81 = load ptr, ptr %9, align 8
  %82 = getelementptr inbounds nuw %struct.SlabBlock, ptr %81, i32 0, i32 5
  call void @dlist_delete_from(ptr noundef %80, ptr noundef %82)
  %83 = load ptr, ptr %8, align 8
  %84 = getelementptr inbounds nuw %struct.SlabContext, ptr %83, i32 0, i32 8
  %85 = load i32, ptr %13, align 4
  %86 = sext i32 %85 to i64
  %87 = getelementptr inbounds [3 x %struct.dlist_head], ptr %84, i64 0, i64 %86
  %88 = load ptr, ptr %9, align 8
  %89 = getelementptr inbounds nuw %struct.SlabBlock, ptr %88, i32 0, i32 5
  call void @dlist_push_head(ptr noundef %87, ptr noundef %89)
  %90 = load ptr, ptr %12, align 8
  %91 = call zeroext i1 @dlist_is_empty(ptr noundef %90)
  br i1 %91, label %92, label %97

92:                                               ; preds = %79
  %93 = load ptr, ptr %8, align 8
  %94 = call i32 @SlabFindNextBlockListIndex(ptr noundef %93)
  %95 = load ptr, ptr %8, align 8
  %96 = getelementptr inbounds nuw %struct.SlabContext, ptr %95, i32 0, i32 5
  store i32 %94, ptr %96, align 8
  br label %97

97:                                               ; preds = %92, %79
  br label %98

98:                                               ; preds = %97, %57
  call void @llvm.lifetime.end.p0(i64 4, ptr %13) #10
  call void @llvm.lifetime.end.p0(i64 8, ptr %12) #10
  br label %99

99:                                               ; preds = %98
  %100 = load ptr, ptr %5, align 8
  %101 = load ptr, ptr %9, align 8
  %102 = load ptr, ptr %10, align 8
  %103 = load i64, ptr %6, align 8
  %104 = call ptr @SlabAllocSetupNewChunk(ptr noundef %100, ptr noundef %101, ptr noundef %102, i64 noundef %103)
  store ptr %104, ptr %4, align 8
  store i32 1, ptr %11, align 4
  br label %105

105:                                              ; preds = %99, %42
  call void @llvm.lifetime.end.p0(i64 8, ptr %10) #10
  call void @llvm.lifetime.end.p0(i64 8, ptr %9) #10
  call void @llvm.lifetime.end.p0(i64 8, ptr %8) #10
  %106 = load ptr, ptr %4, align 8
  ret ptr %106
}