; Function Attrs: nounwind uwtable
define dso_local ptr @SlabAlloc(ptr noundef %0, i64 noundef %1, i32 noundef %2) local_unnamed_addr #0 {
  %4 = getelementptr inbounds nuw i8, ptr %0, i64 80
  %5 = load i32, ptr %4, align 8
  %6 = zext i32 %5 to i64
  %.not = icmp eq i64 %1, %6
  br i1 %.not, label %8, label %7, !prof !10

7:                                                ; preds = %3
  tail call fastcc void @SlabAllocInvalidSize(ptr noundef nonnull %0, i64 noundef %1) #15
  unreachable

8:                                                ; preds = %3
  %9 = getelementptr inbounds nuw i8, ptr %0, i64 96
  %10 = load i32, ptr %9, align 8
  %11 = icmp eq i32 %10, 0
  br i1 %11, label %12, label %14, !prof !11

12:                                               ; preds = %8
  %13 = tail call fastcc ptr @SlabAllocFromNewBlock(ptr noundef nonnull %0, i64 noundef %1, i32 noundef %2)
  br label %78

14:                                               ; preds = %8
  %15 = getelementptr inbounds nuw i8, ptr %0, i64 128
  %16 = sext i32 %10 to i64
  %17 = getelementptr inbounds [3 x %struct.dlist_head], ptr %15, i64 0, i64 %16
  %18 = getelementptr i8, ptr %17, i64 8
  %.val35 = load ptr, ptr %18, align 8
  %19 = getelementptr inbounds i8, ptr %.val35, i64 -32
  %20 = getelementptr inbounds i8, ptr %.val35, i64 -16
  %21 = load ptr, ptr %20, align 8
  %.not.i = icmp eq ptr %21, null
  br i1 %.not.i, label %25, label %22

22:                                               ; preds = %14
  %23 = getelementptr inbounds nuw i8, ptr %21, i64 8
  %24 = load ptr, ptr %23, align 8
  store ptr %24, ptr %20, align 8
  br label %SlabGetNextFreeChunk.exit

25:                                               ; preds = %14
  %26 = getelementptr inbounds i8, ptr %.val35, i64 -8
  %27 = load ptr, ptr %26, align 8
  %28 = getelementptr inbounds nuw i8, ptr %0, i64 84
  %29 = load i32, ptr %28, align 4
  %30 = zext i32 %29 to i64
  %31 = getelementptr inbounds nuw i8, ptr %27, i64 %30
  store ptr %31, ptr %26, align 8
  %32 = getelementptr inbounds i8, ptr %.val35, i64 -20
  %33 = load i32, ptr %32, align 4
  %34 = add i32 %33, -1
  store i32 %34, ptr %32, align 4
  br label %SlabGetNextFreeChunk.exit

SlabGetNextFreeChunk.exit:                        ; preds = %22, %25
  %.0.i = phi ptr [ %21, %22 ], [ %27, %25 ]
  %35 = getelementptr inbounds i8, ptr %.val35, i64 -24
  %36 = load i32, ptr %35, align 8
  %37 = add i32 %36, -1
  store i32 %37, ptr %35, align 8
  %38 = getelementptr i8, ptr %0, i64 100
  %.val = load i32, ptr %38, align 4
  %39 = sub i32 1, %36
  %40 = ashr i32 %39, %.val
  %41 = sub i32 0, %40
  %42 = load i32, ptr %9, align 8
  %.not33 = icmp eq i32 %42, %41
  br i1 %.not33, label %66, label %43, !prof !10

43:                                               ; preds = %SlabGetNextFreeChunk.exit
  %44 = getelementptr inbounds nuw i8, ptr %.val35, i64 8
  %45 = load ptr, ptr %44, align 8
  %46 = load ptr, ptr %.val35, align 8
  %47 = getelementptr inbounds nuw i8, ptr %46, i64 8
  store ptr %45, ptr %47, align 8
  %48 = load ptr, ptr %.val35, align 8
  store ptr %48, ptr %45, align 8
  %49 = sext i32 %41 to i64
  %50 = getelementptr inbounds [3 x %struct.dlist_head], ptr %15, i64 0, i64 %49
  %51 = getelementptr inbounds nuw i8, ptr %50, i64 8
  %52 = load ptr, ptr %51, align 8
  %53 = icmp eq ptr %52, null
  br i1 %53, label %54, label %dlist_push_head.exit

54:                                               ; preds = %43
  store ptr %50, ptr %50, align 8
  br label %dlist_push_head.exit

dlist_push_head.exit:                             ; preds = %43, %54
  %55 = phi ptr [ %50, %54 ], [ %52, %43 ]
  store ptr %55, ptr %44, align 8
  store ptr %50, ptr %.val35, align 8
  store ptr %.val35, ptr %55, align 8
  store ptr %.val35, ptr %51, align 8
  %56 = load ptr, ptr %18, align 8
  %57 = icmp eq ptr %56, null
  %58 = icmp eq ptr %56, %17
  %spec.select.i = or i1 %57, %58
  br i1 %spec.select.i, label %.preheader, label %66

.preheader:                                       ; preds = %dlist_push_head.exit, %64
  %indvars.iv.i = phi i64 [ %indvars.iv.next.i, %64 ], [ 1, %dlist_push_head.exit ]
  %59 = getelementptr inbounds nuw [3 x %struct.dlist_head], ptr %15, i64 0, i64 %indvars.iv.i
  %60 = getelementptr inbounds nuw i8, ptr %59, i64 8
  %61 = load ptr, ptr %60, align 8
  %62 = icmp eq ptr %61, null
  %63 = icmp eq ptr %61, %59
  %spec.select.i.i = or i1 %62, %63
  br i1 %spec.select.i.i, label %64, label %.split.loop.exit.i

64:                                               ; preds = %.preheader
  %indvars.iv.next.i = add nuw nsw i64 %indvars.iv.i, 1
  %exitcond.i = icmp eq i64 %indvars.iv.next.i, 3
  br i1 %exitcond.i, label %SlabFindNextBlockListIndex.exit, label %.preheader, !llvm.loop !12

.split.loop.exit.i:                               ; preds = %.preheader
  %65 = trunc nuw nsw i64 %indvars.iv.i to i32
  br label %SlabFindNextBlockListIndex.exit

SlabFindNextBlockListIndex.exit:                  ; preds = %64, %.split.loop.exit.i
  %spec.select.i36 = phi i32 [ %65, %.split.loop.exit.i ], [ 0, %64 ]
  store i32 %spec.select.i36, ptr %9, align 8
  br label %66

66:                                               ; preds = %dlist_push_head.exit, %SlabFindNextBlockListIndex.exit, %SlabGetNextFreeChunk.exit
  %.val34 = load i32, ptr %4, align 8
  %67 = zext i32 %.val34 to i64
  %68 = ptrtoint ptr %.0.i to i64
  %69 = ptrtoint ptr %19 to i64
  %70 = sub i64 %68, %69
  %71 = shl i64 %70, 34
  %72 = shl nuw nsw i64 %67, 5
  %73 = add nuw nsw i64 %72, 224
  %74 = and i64 %73, 274877906688
  %75 = or i64 %71, %74
  %76 = or disjoint i64 %75, 5
  store i64 %76, ptr %.0.i, align 8
  %77 = getelementptr inbounds nuw i8, ptr %.0.i, i64 8
  br label %78

78:                                               ; preds = %66, %12
  %.0 = phi ptr [ %13, %12 ], [ %77, %66 ]
  ret ptr %.0
}